(dp0
Vprosivic
p1
(dp2
VALOCC
p3
VFake
p4
sVGPND
p5
g4
sS'DSVDD_recon_err'
p6
S'mmon_architecture_181212_WITH_BIAS'
p7
sVDSVDD
p8
S'mmon_architecture_181212_WITH_BIAS'
p9
ssVdreyeve
p10
(dp11
g3
g4
sg5
g4
sS'DSVDD_recon_err'
p12
S'common_architecture_181212'
p13
sg8
S'common_architecture_181212'
p14
ss.